; Function Attrs: mustprogress nounwind uwtable
define hidden noundef i64 @_ZN14XMemoryManager25alloc_low_address_at_mostEmPm(ptr noundef nonnull align 8 dereferenceable(112) %0, i64 noundef %1, ptr nocapture noundef writeonly %2) local_unnamed_addr #0 align 2 {
  %4 = tail call i32 @pthread_mutex_lock(ptr noundef nonnull %0) #7
  %5 = getelementptr inbounds i8, ptr %0, i64 40
  %6 = getelementptr inbounds i8, ptr %0, i64 56
  %7 = load i64, ptr %6, align 8
  %8 = icmp eq i64 %7, 0
  %9 = load ptr, ptr %5, align 8
  %10 = ptrtoint ptr %9 to i64
  %11 = add i64 %10, -16
  %12 = inttoptr i64 %11 to ptr
  %.not22 = icmp eq i64 %11, 0
  %.not = select i1 %8, i1 true, i1 %.not22
  br i1 %.not, label %37, label %13

13:                                               ; preds = %3
  %14 = getelementptr inbounds i8, ptr %12, i64 8
  %15 = load i64, ptr %14, align 8
  %16 = load i64, ptr %12, align 8
  %17 = sub i64 %15, %16
  %.not19 = icmp ugt i64 %17, %1
  br i1 %.not19, label %31, label %18

18:                                               ; preds = %13
  store i64 %17, ptr %2, align 8
  %19 = getelementptr inbounds i8, ptr %12, i64 16
  %20 = load ptr, ptr %19, align 8
  %21 = getelementptr inbounds i8, ptr %12, i64 24
  %22 = load ptr, ptr %21, align 8
  %23 = load ptr, ptr %22, align 8
  store ptr %23, ptr %19, align 8
  %24 = getelementptr inbounds i8, ptr %20, i64 8
  %25 = load ptr, ptr %24, align 8
  store ptr %25, ptr %21, align 8
  store ptr %22, ptr %24, align 8
  store ptr %20, ptr %22, align 8
  %26 = load i64, ptr %6, align 8
  %27 = add i64 %26, -1
  store i64 %27, ptr %6, align 8
  %28 = getelementptr inbounds i8, ptr %0, i64 72
  %29 = load ptr, ptr %28, align 8
  %.not.i = icmp eq ptr %29, null
  br i1 %.not.i, label %_ZN14XMemoryManager7destroyEP7XMemory.exit, label %30

30:                                               ; preds = %18
  tail call void %29(ptr noundef nonnull %12) #7
  br label %_ZN14XMemoryManager7destroyEP7XMemory.exit

_ZN14XMemoryManager7destroyEP7XMemory.exit:       ; preds = %30, %18
  tail call void @_Z8FreeHeapPv(ptr noundef nonnull %12) #7
  br label %_ZN7XLockerI5XLockED2Ev.exit

31:                                               ; preds = %13
  %32 = getelementptr inbounds i8, ptr %0, i64 80
  %33 = load ptr, ptr %32, align 8
  %.not.i20 = icmp eq ptr %33, null
  br i1 %.not.i20, label %_ZN14XMemoryManager17shrink_from_frontEP7XMemorym.exit, label %34

34:                                               ; preds = %31
  tail call void %33(ptr noundef nonnull %12, i64 noundef %1) #7
  %.pre = load i64, ptr %12, align 8
  br label %_ZN14XMemoryManager17shrink_from_frontEP7XMemorym.exit

_ZN14XMemoryManager17shrink_from_frontEP7XMemorym.exit: ; preds = %31, %34
  %35 = phi i64 [ %16, %31 ], [ %.pre, %34 ]
  %36 = add i64 %35, %1
  store i64 %36, ptr %12, align 8
  store i64 %1, ptr %2, align 8
  br label %_ZN7XLockerI5XLockED2Ev.exit

37:                                               ; preds = %3
  store i64 0, ptr %2, align 8
  br label %_ZN7XLockerI5XLockED2Ev.exit

_ZN7XLockerI5XLockED2Ev.exit:                     ; preds = %37, %_ZN14XMemoryManager17shrink_from_frontEP7XMemorym.exit, %_ZN14XMemoryManager7destroyEP7XMemory.exit
  %.0 = phi i64 [ %16, %_ZN14XMemoryManager7destroyEP7XMemory.exit ], [ %16, %_ZN14XMemoryManager17shrink_from_frontEP7XMemorym.exit ], [ -1, %37 ]
  %38 = tail call i32 @pthread_mutex_unlock(ptr noundef nonnull %0) #7
  ret i64 %.0
}